target datalayout = "e-m:e-p270:32:32-p271:32:32-p272:64:64-i64:64-i128:128-f80:128-n8:16:32:64-S128"
target triple = "x86_64-pc-linux-gnu"

; Function Attrs: nounwind uwtable
define internal i32 @mmio_read32(ptr noundef %0) #0 {
  %2 = alloca ptr, align 8
  %3 = alloca i32, align 4
  store ptr %0, ptr %2, align 8
  %4 = load ptr, ptr %2, align 8
  %5 = call i32 asm sideeffect "movl ($1),$0", "=r,r,~{dirflag},~{fpsr},~{flags}"(ptr %4) #4, !srcloc !7
  store i32 %5, ptr %3, align 4
  %6 = load i32, ptr %3, align 4
  ret i32 %6
}

; Function Attrs: nounwind uwtable
define internal void @mmio_write32(ptr noundef %0, i32 noundef %1) #0 {
  %3 = alloca ptr, align 8
  %4 = alloca i32, align 4
  store ptr %0, ptr %3, align 8
  store i32 %1, ptr %4, align 4
  %5 = load i32, ptr %4, align 4
  %6 = load ptr, ptr %3, align 8
  call void asm sideeffect "movl $0,($1)", "r,r,~{dirflag},~{fpsr},~{flags}"(i32 %5, ptr %6) #4, !srcloc !6
  ret void
}

; Function Attrs: nounwind uwtable
define void @up_ioapic_write(i32 noundef %0, i32 noundef %1) #0 {
  %3 = alloca i32, align 4
  %4 = alloca i32, align 4
  store i32 %0, ptr %3, align 4
  store i32 %1, ptr %4, align 4
  %5 = load i32, ptr %3, align 4
  %6 = inttoptr i64 4273995776 to ptr
  call void @mmio_write32(ptr noundef %6, i32 noundef %5)
  %7 = load i32, ptr %4, align 4
  %8 = inttoptr i64 4273995776 to ptr
  %9 = getelementptr inbounds i8, ptr %8, i64 16
  call void @mmio_write32(ptr noundef %9, i32 noundef %7)
  ret void
}

; Function Attrs: nounwind uwtable
define i32 @up_ioapic_read(i32 noundef %0) #0 {
  %2 = alloca i32, align 4
  store i32 %0, ptr %2, align 4
  %3 = load i32, ptr %2, align 4
  %4 = inttoptr i64 4273995776 to ptr
  call void @mmio_write32(ptr noundef %4, i32 noundef %3)
  %5 = inttoptr i64 4273995776 to ptr
  %6 = getelementptr inbounds i8, ptr %5, i64 16
  %7 = call i32 @mmio_read32(ptr noundef %6)
  ret i32 %7
}

; Function Attrs: nounwind uwtable
define void @up_ioapic_unmask_pin(i32 noundef %0) #0 {
  %2 = alloca i32, align 4
  %3 = alloca i32, align 4
  store i32 %0, ptr %2, align 4
  %4 = load i32, ptr %2, align 4
  %5 = mul i32 %4, 2
  %6 = add i32 16, %5
  %7 = call i32 @up_ioapic_read(i32 noundef %6)
  store i32 %7, ptr %3, align 4
  %8 = load i32, ptr %2, align 4
  %9 = mul i32 %8, 2
  %10 = add i32 16, %9
  %11 = load i32, ptr %3, align 4
  %12 = and i32 %11, -65537
  call void @up_ioapic_write(i32 noundef %10, i32 noundef %12)
  ret void
}

; Function Attrs: nounwind uwtable
define void @up_enable_irq(i32 noundef %0) #0 {
  %2 = alloca i32, align 4
  store i32 %0, ptr %2, align 4
  %3 = load i32, ptr %2, align 4
  %4 = icmp sge i32 %3, 32
  br i1 %4, label %5, label %8

5:                                                ; preds = %1
  %6 = load i32, ptr %2, align 4
  %7 = sub nsw i32 %6, 32
  call void @up_ioapic_unmask_pin(i32 noundef %7)
  br label %8

8:                                                ; preds = %5, %1
  ret void
}