; Function Attrs: nounwind uwtable
define void @up_enable_irq(i32 noundef %0) local_unnamed_addr #0 {
  %2 = icmp sgt i32 %0, 31
  br i1 %2, label %3, label %8

3:                                                ; preds = %1
  %4 = shl nuw i32 %0, 1
  %5 = add i32 %4, -48
  tail call void asm sideeffect "movl $0,($1)", "r,r,~{dirflag},~{fpsr},~{flags}"(i32 %5, ptr nonnull inttoptr (i64 4273995776 to ptr)) #4, !srcloc !6
  %6 = tail call i32 asm sideeffect "movl ($1),$0", "=r,r,~{dirflag},~{fpsr},~{flags}"(ptr nonnull inttoptr (i64 4273995792 to ptr)) #4, !srcloc !7
  %7 = and i32 %6, -65537
  tail call void asm sideeffect "movl $0,($1)", "r,r,~{dirflag},~{fpsr},~{flags}"(i32 %5, ptr nonnull inttoptr (i64 4273995776 to ptr)) #4, !srcloc !6
  tail call void asm sideeffect "movl $0,($1)", "r,r,~{dirflag},~{fpsr},~{flags}"(i32 %7, ptr nonnull inttoptr (i64 4273995792 to ptr)) #4, !srcloc !6
  br label %8

8:                                                ; preds = %3, %1
  ret void
}